; Function Attrs: nounwind uwtable
define internal ptr @unicode_capitalize(ptr noundef %0, ptr readnone captures(none) %1) #0 {
  %3 = getelementptr i8, ptr %0, i64 16
  %.val.i = load i64, ptr %3, align 8, !tbaa !197
  %4 = icmp eq i64 %.val.i, 0
  br i1 %4, label %5, label %7

5:                                                ; preds = %2
  %6 = tail call fastcc ptr @unicode_result_unchanged(ptr noundef nonnull %0)
  br label %unicode_capitalize_impl.exit

7:                                                ; preds = %2
  %8 = tail call fastcc ptr @case_operation(ptr noundef nonnull %0, ptr noundef nonnull @do_capitalize)
  br label %unicode_capitalize_impl.exit

unicode_capitalize_impl.exit:                     ; preds = %5, %7
  %.0.i = phi ptr [ %6, %5 ], [ %8, %7 ]
  ret ptr %.0.i
}